target datalayout = "e-m:e-p270:32:32-p271:32:32-p272:64:64-i64:64-i128:128-f80:128-n8:16:32:64-S128"
target triple = "x86_64-pc-linux-gnu"

%struct.SDL_FColor = type { float, float, float, float }
%struct.SDL_Rect = type { i32, i32, i32, i32 }
%struct.GLES2_RenderData = type { ptr, i8, i8, i8, ptr, ptr, ptr, ptr, ptr, ptr, ptr, ptr, ptr, ptr, ptr, ptr, ptr, ptr, ptr, ptr, ptr, ptr, ptr, ptr, ptr, ptr, ptr, ptr, ptr, ptr, ptr, ptr, ptr, ptr, ptr, ptr, ptr, ptr, ptr, ptr, ptr, ptr, ptr, ptr, ptr, ptr, ptr, ptr, ptr, ptr, ptr, ptr, ptr, ptr, ptr, ptr, ptr, ptr, ptr, ptr, ptr, ptr, i32, [16 x i32], %struct.GLES2_ProgramCache, i8, i8, i8, i8, %struct.GLES2_DrawStateCache, i32 }
%struct.GLES2_ProgramCache = type { i32, ptr, ptr }
%struct.GLES2_DrawStateCache = type { %struct.SDL_Rect, i8, ptr, ptr, i32, i8, i8, i8, %struct.SDL_Rect, i8, i8, %struct.SDL_FColor, i8, i32, i32, ptr, ptr, [4 x [4 x float]] }

@.str.98 = private unnamed_addr constant [19 x i8] c"No shader body src\00", align 1
@.str.99 = private unnamed_addr constant [33 x i8] c"Failed to load the shader %d: %s\00", align 1
@.str.100 = private unnamed_addr constant [29 x i8] c"Failed to load the shader %d\00", align 1

; Function Attrs: nounwind uwtable
define internal zeroext i1 @GLES2_CacheShader(ptr noundef %0, i32 noundef %1, i32 noundef %2) #0 {
  %4 = alloca i1, align 1
  %5 = alloca ptr, align 8
  %6 = alloca i32, align 4
  %7 = alloca i32, align 4
  %8 = alloca i32, align 4
  %9 = alloca i32, align 4
  %10 = alloca i32, align 4
  %11 = alloca i32, align 4
  %12 = alloca [3 x ptr], align 16
  %13 = alloca ptr, align 8
  %14 = alloca i32, align 4
  %15 = alloca ptr, align 8
  %16 = alloca i32, align 4
  store ptr %0, ptr %5, align 8
  store i32 %1, ptr %6, align 4
  store i32 %2, ptr %7, align 4
  call void @llvm.lifetime.start.p0(i64 4, ptr %8) #6
  store i32 0, ptr %8, align 4
  call void @llvm.lifetime.start.p0(i64 4, ptr %9) #6
  store i32 0, ptr %9, align 4
  call void @llvm.lifetime.start.p0(i64 4, ptr %10) #6
  call void @llvm.lifetime.start.p0(i64 4, ptr %11) #6
  call void @llvm.lifetime.start.p0(i64 24, ptr %12) #6
  call void @llvm.lifetime.start.p0(i64 8, ptr %13) #6
  %17 = load i32, ptr %6, align 4
  %18 = call ptr @GLES2_GetShader(i32 noundef %17)
  store ptr %18, ptr %13, align 8
  %19 = load ptr, ptr %13, align 8
  %20 = icmp ne ptr %19, null
  br i1 %20, label %23, label %21

21:                                               ; preds = %3
  %22 = call zeroext i1 (ptr, ...) @SDL_SetError_REAL(ptr noundef @.str.98)
  store i1 %22, ptr %4, align 1
  store i32 1, ptr %14, align 4
  br label %139

23:                                               ; preds = %3
  store i32 0, ptr %10, align 4
  br label %24

24:                                               ; preds = %89, %23
  %25 = load i32, ptr %10, align 4
  %26 = icmp slt i32 %25, 2
  br i1 %26, label %27, label %31

27:                                               ; preds = %24
  %28 = load i32, ptr %9, align 4
  %29 = icmp ne i32 %28, 0
  %30 = xor i1 %29, true
  br label %31

31:                                               ; preds = %27, %24
  %32 = phi i1 [ false, %24 ], [ %30, %27 ]
  br i1 %32, label %33, label %92

33:                                               ; preds = %31
  store i32 0, ptr %11, align 4
  %34 = load i32, ptr %6, align 4
  %35 = call ptr @GLES2_GetShaderPrologue(i32 noundef %34)
  %36 = load i32, ptr %11, align 4
  %37 = add nsw i32 %36, 1
  store i32 %37, ptr %11, align 4
  %38 = sext i32 %36 to i64
  %39 = getelementptr inbounds [3 x ptr], ptr %12, i64 0, i64 %38
  store ptr %35, ptr %39, align 8
  %40 = load i32, ptr %7, align 4
  %41 = icmp eq i32 %40, 35632
  br i1 %41, label %42, label %61

42:                                               ; preds = %33
  %43 = load i32, ptr %10, align 4
  %44 = icmp eq i32 %43, 0
  br i1 %44, label %45, label %54

45:                                               ; preds = %42
  %46 = load ptr, ptr %5, align 8
  %47 = getelementptr inbounds nuw %struct.GLES2_RenderData, ptr %46, i32 0, i32 70
  %48 = load i32, ptr %47, align 8
  %49 = call ptr @GLES2_GetShaderInclude(i32 noundef %48)
  %50 = load i32, ptr %11, align 4
  %51 = add nsw i32 %50, 1
  store i32 %51, ptr %11, align 4
  %52 = sext i32 %50 to i64
  %53 = getelementptr inbounds [3 x ptr], ptr %12, i64 0, i64 %52
  store ptr %49, ptr %53, align 8
  br label %60

54:                                               ; preds = %42
  %55 = call ptr @GLES2_GetShaderInclude(i32 noundef 4)
  %56 = load i32, ptr %11, align 4
  %57 = add nsw i32 %56, 1
  store i32 %57, ptr %11, align 4
  %58 = sext i32 %56 to i64
  %59 = getelementptr inbounds [3 x ptr], ptr %12, i64 0, i64 %58
  store ptr %55, ptr %59, align 8
  br label %60

60:                                               ; preds = %54, %45
  br label %61

61:                                               ; preds = %60, %33
  %62 = load ptr, ptr %13, align 8
  %63 = load i32, ptr %11, align 4
  %64 = add nsw i32 %63, 1
  store i32 %64, ptr %11, align 4
  %65 = sext i32 %63 to i64
  %66 = getelementptr inbounds [3 x ptr], ptr %12, i64 0, i64 %65
  store ptr %62, ptr %66, align 8
  br label %67

67:                                               ; preds = %61
  br label %68

68:                                               ; preds = %67
  br label %69

69:                                               ; preds = %68
  %70 = load ptr, ptr %5, align 8
  %71 = getelementptr inbounds nuw %struct.GLES2_RenderData, ptr %70, i32 0, i32 14
  %72 = load ptr, ptr %71, align 8
  %73 = load i32, ptr %7, align 4
  %74 = call i32 %72(i32 noundef %73)
  store i32 %74, ptr %8, align 4
  %75 = load ptr, ptr %5, align 8
  %76 = getelementptr inbounds nuw %struct.GLES2_RenderData, ptr %75, i32 0, i32 38
  %77 = load ptr, ptr %76, align 8
  %78 = load i32, ptr %8, align 4
  %79 = load i32, ptr %11, align 4
  %80 = getelementptr inbounds [3 x ptr], ptr %12, i64 0, i64 0
  call void %77(i32 noundef %78, i32 noundef %79, ptr noundef %80, ptr noundef null)
  %81 = load ptr, ptr %5, align 8
  %82 = getelementptr inbounds nuw %struct.GLES2_RenderData, ptr %81, i32 0, i32 12
  %83 = load ptr, ptr %82, align 8
  %84 = load i32, ptr %8, align 4
  call void %83(i32 noundef %84)
  %85 = load ptr, ptr %5, align 8
  %86 = getelementptr inbounds nuw %struct.GLES2_RenderData, ptr %85, i32 0, i32 31
  %87 = load ptr, ptr %86, align 8
  %88 = load i32, ptr %8, align 4
  call void %87(i32 noundef %88, i32 noundef 35713, ptr noundef %9)
  br label %89

89:                                               ; preds = %69
  %90 = load i32, ptr %10, align 4
  %91 = add nsw i32 %90, 1
  store i32 %91, ptr %10, align 4
  br label %24, !llvm.loop !17

92:                                               ; preds = %31
  %93 = load i32, ptr %9, align 4
  %94 = icmp ne i32 %93, 0
  br i1 %94, label %132, label %95

95:                                               ; preds = %92
  call void @llvm.lifetime.start.p0(i64 8, ptr %15) #6
  store ptr null, ptr %15, align 8
  call void @llvm.lifetime.start.p0(i64 4, ptr %16) #6
  store i32 0, ptr %16, align 4
  %96 = load ptr, ptr %5, align 8
  %97 = getelementptr inbounds nuw %struct.GLES2_RenderData, ptr %96, i32 0, i32 31
  %98 = load ptr, ptr %97, align 8
  %99 = load i32, ptr %8, align 4
  call void %98(i32 noundef %99, i32 noundef 35716, ptr noundef %16)
  %100 = load i32, ptr %16, align 4
  %101 = icmp sgt i32 %100, 0
  br i1 %101, label %102, label %116

102:                                              ; preds = %95
  %103 = load i32, ptr %16, align 4
  %104 = sext i32 %103 to i64
  %105 = call noalias ptr @SDL_malloc_REAL(i64 noundef %104)
  store ptr %105, ptr %15, align 8
  %106 = load ptr, ptr %15, align 8
  %107 = icmp ne ptr %106, null
  br i1 %107, label %108, label %115

108:                                              ; preds = %102
  %109 = load ptr, ptr %5, align 8
  %110 = getelementptr inbounds nuw %struct.GLES2_RenderData, ptr %109, i32 0, i32 30
  %111 = load ptr, ptr %110, align 8
  %112 = load i32, ptr %8, align 4
  %113 = load i32, ptr %16, align 4
  %114 = load ptr, ptr %15, align 8
  call void %111(i32 noundef %112, i32 noundef %113, ptr noundef %16, ptr noundef %114)
  br label %115

115:                                              ; preds = %108, %102
  br label %116

116:                                              ; preds = %115, %95
  %117 = load ptr, ptr %15, align 8
  %118 = icmp ne ptr %117, null
  br i1 %118, label %119, label %123

119:                                              ; preds = %116
  %120 = load i32, ptr %6, align 4
  %121 = load ptr, ptr %15, align 8
  call void (i32, ptr, ...) @SDL_LogError_REAL(i32 noundef 6, ptr noundef @.str.99, i32 noundef %120, ptr noundef %121)
  %122 = load ptr, ptr %15, align 8
  call void @SDL_free_REAL(ptr noundef %122)
  br label %125

123:                                              ; preds = %116
  %124 = load i32, ptr %6, align 4
  call void (i32, ptr, ...) @SDL_LogError_REAL(i32 noundef 6, ptr noundef @.str.100, i32 noundef %124)
  br label %125

125:                                              ; preds = %123, %119
  %126 = load ptr, ptr %5, align 8
  %127 = getelementptr inbounds nuw %struct.GLES2_RenderData, ptr %126, i32 0, i32 16
  %128 = load ptr, ptr %127, align 8
  %129 = load i32, ptr %8, align 4
  call void %128(i32 noundef %129)
  %130 = load i32, ptr %6, align 4
  %131 = call zeroext i1 (ptr, ...) @SDL_SetError_REAL(ptr noundef @.str.100, i32 noundef %130)
  store i1 %131, ptr %4, align 1
  store i32 1, ptr %14, align 4
  call void @llvm.lifetime.end.p0(i64 4, ptr %16) #6
  call void @llvm.lifetime.end.p0(i64 8, ptr %15) #6
  br label %139

132:                                              ; preds = %92
  %133 = load i32, ptr %8, align 4
  %134 = load ptr, ptr %5, align 8
  %135 = getelementptr inbounds nuw %struct.GLES2_RenderData, ptr %134, i32 0, i32 63
  %136 = load i32, ptr %6, align 4
  %137 = zext i32 %136 to i64
  %138 = getelementptr inbounds nuw [16 x i32], ptr %135, i64 0, i64 %137
  store i32 %133, ptr %138, align 4
  store i1 true, ptr %4, align 1
  store i32 1, ptr %14, align 4
  br label %139

139:                                              ; preds = %132, %125, %21
  call void @llvm.lifetime.end.p0(i64 8, ptr %13) #6
  call void @llvm.lifetime.end.p0(i64 24, ptr %12) #6
  call void @llvm.lifetime.end.p0(i64 4, ptr %11) #6
  call void @llvm.lifetime.end.p0(i64 4, ptr %10) #6
  call void @llvm.lifetime.end.p0(i64 4, ptr %9) #6
  call void @llvm.lifetime.end.p0(i64 4, ptr %8) #6
  %140 = load i1, ptr %4, align 1
  ret i1 %140
}