; Function Attrs: nounwind uwtable
define internal fastcc zeroext i1 @GLES2_CacheShader(ptr noundef captures(none) %0, i32 noundef range(i32 -2147483648, 16) %1, i32 noundef range(i32 35632, 35634) %2) unnamed_addr #0 {
  %4 = alloca i32, align 4
  %5 = alloca [3 x ptr], align 16
  %6 = alloca i32, align 4
  call void @llvm.lifetime.start.p0(i64 4, ptr nonnull %4) #10
  store i32 0, ptr %4, align 4
  call void @llvm.lifetime.start.p0(i64 24, ptr nonnull %5) #10
  %7 = tail call ptr @GLES2_GetShader(i32 noundef %1) #10
  %.not = icmp eq ptr %7, null
  br i1 %.not, label %30, label %.lr.ph

.lr.ph:                                           ; preds = %3
  %8 = icmp eq i32 %2, 35632
  %9 = getelementptr inbounds nuw i8, ptr %5, i64 8
  %10 = getelementptr inbounds nuw i8, ptr %0, i64 760
  %11 = getelementptr inbounds nuw i8, ptr %0, i64 96
  %12 = getelementptr inbounds nuw i8, ptr %0, i64 288
  %13 = getelementptr inbounds nuw i8, ptr %0, i64 80
  %14 = getelementptr inbounds nuw i8, ptr %0, i64 232
  br i1 %8, label %.lr.ph.split.us, label %.lr.ph.split

.lr.ph.split.us:                                  ; preds = %.lr.ph
  %15 = getelementptr inbounds nuw i8, ptr %5, i64 16
  br label %16

16:                                               ; preds = %21, %.lr.ph.split.us
  %17 = phi i1 [ true, %.lr.ph.split.us ], [ false, %21 ]
  %18 = call ptr @GLES2_GetShaderPrologue(i32 noundef %1) #10
  store ptr %18, ptr %5, align 16
  br i1 %17, label %19, label %21

19:                                               ; preds = %16
  %20 = load i32, ptr %10, align 8
  br label %21

21:                                               ; preds = %16, %19
  %.sink = phi i32 [ %20, %19 ], [ 4, %16 ]
  %22 = call ptr @GLES2_GetShaderInclude(i32 noundef %.sink) #10
  store ptr %22, ptr %9, align 8
  store ptr %7, ptr %15, align 16
  %23 = load ptr, ptr %11, align 8
  %24 = call i32 %23(i32 noundef 35632) #10
  %25 = load ptr, ptr %12, align 8
  call void %25(i32 noundef %24, i32 noundef 3, ptr noundef nonnull %5, ptr noundef null) #10
  %26 = load ptr, ptr %13, align 8
  call void %26(i32 noundef %24) #10
  %27 = load ptr, ptr %14, align 8
  call void %27(i32 noundef %24, i32 noundef 35713, ptr noundef nonnull %4) #10
  %28 = load i32, ptr %4, align 4
  %.not46.us = icmp eq i32 %28, 0
  %29 = select i1 %17, i1 %.not46.us, i1 false
  br i1 %29, label %16, label %._crit_edge, !llvm.loop !18

30:                                               ; preds = %3
  %31 = tail call zeroext i1 (ptr, ...) @SDL_SetError_REAL(ptr noundef nonnull @.str.98) #10
  br label %62

.lr.ph.split:                                     ; preds = %.lr.ph, %.lr.ph.split
  %32 = phi i1 [ false, %.lr.ph.split ], [ true, %.lr.ph ]
  %33 = call ptr @GLES2_GetShaderPrologue(i32 noundef %1) #10
  store ptr %33, ptr %5, align 16
  store ptr %7, ptr %9, align 8
  %34 = load ptr, ptr %11, align 8
  %35 = call i32 %34(i32 noundef %2) #10
  %36 = load ptr, ptr %12, align 8
  call void %36(i32 noundef %35, i32 noundef 2, ptr noundef nonnull %5, ptr noundef null) #10
  %37 = load ptr, ptr %13, align 8
  call void %37(i32 noundef %35) #10
  %38 = load ptr, ptr %14, align 8
  call void %38(i32 noundef %35, i32 noundef 35713, ptr noundef nonnull %4) #10
  %39 = load i32, ptr %4, align 4
  %.not46 = icmp eq i32 %39, 0
  %40 = select i1 %32, i1 %.not46, i1 false
  br i1 %40, label %.lr.ph.split, label %._crit_edge, !llvm.loop !18

._crit_edge:                                      ; preds = %.lr.ph.split, %21
  %.042.lcssa = phi i32 [ %24, %21 ], [ %35, %.lr.ph.split ]
  %.not46.lcssa = phi i1 [ %.not46.us, %21 ], [ %.not46, %.lr.ph.split ]
  br i1 %.not46.lcssa, label %41, label %58

41:                                               ; preds = %._crit_edge
  call void @llvm.lifetime.start.p0(i64 4, ptr nonnull %6) #10
  store i32 0, ptr %6, align 4
  %42 = getelementptr inbounds nuw i8, ptr %0, i64 232
  %43 = load ptr, ptr %42, align 8
  call void %43(i32 noundef %.042.lcssa, i32 noundef 35716, ptr noundef nonnull %6) #10
  %44 = load i32, ptr %6, align 4
  %45 = icmp sgt i32 %44, 0
  br i1 %45, label %46, label %53

46:                                               ; preds = %41
  %47 = zext nneg i32 %44 to i64
  %48 = call noalias ptr @SDL_malloc_REAL(i64 noundef %47) #10
  %.not47 = icmp eq ptr %48, null
  br i1 %.not47, label %53, label %49

49:                                               ; preds = %46
  %50 = getelementptr inbounds nuw i8, ptr %0, i64 224
  %51 = load ptr, ptr %50, align 8
  %52 = load i32, ptr %6, align 4
  call void %51(i32 noundef %.042.lcssa, i32 noundef %52, ptr noundef nonnull %6, ptr noundef nonnull %48) #10
  call void (i32, ptr, ...) @SDL_LogError_REAL(i32 noundef 6, ptr noundef nonnull @.str.99, i32 noundef %1, ptr noundef nonnull %48) #10
  call void @SDL_free_REAL(ptr noundef nonnull %48) #10
  br label %54

53:                                               ; preds = %46, %41
  call void (i32, ptr, ...) @SDL_LogError_REAL(i32 noundef 6, ptr noundef nonnull @.str.100, i32 noundef %1) #10
  br label %54

54:                                               ; preds = %53, %49
  %55 = getelementptr inbounds nuw i8, ptr %0, i64 112
  %56 = load ptr, ptr %55, align 8
  call void %56(i32 noundef %.042.lcssa) #10
  %57 = call zeroext i1 (ptr, ...) @SDL_SetError_REAL(ptr noundef nonnull @.str.100, i32 noundef %1) #10
  call void @llvm.lifetime.end.p0(i64 4, ptr nonnull %6) #10
  br label %62

58:                                               ; preds = %._crit_edge
  %59 = getelementptr inbounds nuw i8, ptr %0, i64 484
  %60 = zext i32 %1 to i64
  %61 = getelementptr inbounds nuw [16 x i32], ptr %59, i64 0, i64 %60
  store i32 %.042.lcssa, ptr %61, align 4
  br label %62

62:                                               ; preds = %58, %54, %30
  %.039 = phi i1 [ true, %58 ], [ %57, %54 ], [ %31, %30 ]
  call void @llvm.lifetime.end.p0(i64 24, ptr nonnull %5) #10
  call void @llvm.lifetime.end.p0(i64 4, ptr nonnull %4) #10
  ret i1 %.039
}